target datalayout = "e-m:e-p270:32:32-p271:32:32-p272:64:64-i64:64-i128:128-f80:128-n8:16:32:64-S128"
target triple = "x86_64-pc-linux-gnu"

%class.QString = type { %struct.QArrayDataPointer }
%struct.QArrayDataPointer = type { ptr, ptr, i64 }
%class.QPen = type { ptr }
%class.QSharedPointer = type { ptr, ptr }
%class.QFont = type <{ %class.QExplicitlySharedDataPointer, i32, [4 x i8] }>
%class.QExplicitlySharedDataPointer = type { ptr }
%class.SequenceDiagram = type { %class.QCPAbstractPlottable, ptr, ptr, ptr, ptr, ptr, i32, double }
%class.QCPAbstractPlottable = type { %class.QCPLayerable.base, %class.QString, i8, i8, %class.QPen, %class.QBrush, %class.QPointer.2, %class.QPointer.2, i32, %class.QCPDataSelection, ptr }
%class.QCPLayerable.base = type <{ %class.QObject, i8, [7 x i8], ptr, %class.QPointer, ptr, i8 }>
%class.QObject = type { ptr, %class.QScopedPointer }
%class.QScopedPointer = type { ptr }
%class.QPointer = type { %class.QWeakPointer }
%class.QWeakPointer = type { ptr, ptr }
%class.QBrush = type { %"class.std::unique_ptr" }
%"class.std::unique_ptr" = type { %"struct.std::__uniq_ptr_data" }
%"struct.std::__uniq_ptr_data" = type { %"class.std::__uniq_ptr_impl" }
%"class.std::__uniq_ptr_impl" = type { %"class.std::tuple" }
%"class.std::tuple" = type { %"struct.std::_Tuple_impl" }
%"struct.std::_Tuple_impl" = type { %"struct.std::_Head_base.1" }
%"struct.std::_Head_base.1" = type { ptr }
%class.QPointer.2 = type { %class.QWeakPointer }
%class.QCPDataSelection = type { %class.QList }
%class.QList = type { %struct.QArrayDataPointer.3 }
%struct.QArrayDataPointer.3 = type { ptr, ptr, i64 }
%class.QCPAxis = type { %class.QCPLayerable.base, i32, ptr, i32, i32, %class.QFlags, %class.QFlags, %class.QPen, %class.QPen, %class.QString, %class.QFont, %class.QFont, %class.QColor, %class.QColor, i8, [7 x i8], %class.QFont, %class.QFont, %class.QColor, %class.QColor, i32, %struct.QLatin1Char, i8, i8, i8, %class.QPen, %class.QPen, %class.QPen, %class.QPen, %class.QCPRange, i8, i32, ptr, ptr, %class.QSharedPointer, %class.QList.8, %class.QList.12, %class.QList.8, i8, i32, i8, %class.QCPRange, %class.QFlags.16, %class.QFlags.16 }
%class.QFlags = type { i32 }
%class.QColor = type <{ i32, %"union.QColor::CT", [2 x i8] }>
%"union.QColor::CT" = type { %struct.anon }
%struct.anon = type { i16, i16, i16, i16, i16 }
%struct.QLatin1Char = type { i8 }
%class.QList.12 = type { %struct.QArrayDataPointer.15 }
%struct.QArrayDataPointer.15 = type { ptr, ptr, i64 }
%class.QList.8 = type { %struct.QArrayDataPointer.11 }
%struct.QArrayDataPointer.11 = type { ptr, ptr, i64 }
%class.QCPRange = type { double, double }
%class.QFlags.16 = type { i32 }
%class.QPoint = type { i32, i32 }
%class.QCPLayoutElement = type { %class.QCPLayerable.base, ptr, %class.QSize, %class.QSize, i32, %class.QRect, %class.QRect, %class.QMargins, %class.QMargins, %class.QFlags.46, %class.QHash }
%class.QSize = type { i32, i32 }
%class.QRect = type { i32, i32, i32, i32 }
%class.QMargins = type { i32, i32, i32, i32 }
%class.QFlags.46 = type { i32 }
%class.QHash = type { ptr }

; Function Attrs: mustprogress nounwind uwtable
define linkonce_odr noundef i32 @_ZNK5QRect5rightEv(ptr noundef nonnull align 4 dereferenceable(16) %0) #0 comdat align 2 {
  %2 = alloca ptr, align 8
  store ptr %0, ptr %2, align 8
  %3 = load ptr, ptr %2, align 8
  %4 = getelementptr inbounds %class.QRect, ptr %3, i32 0, i32 2
  %5 = load i32, ptr %4, align 4
  ret i32 %5
}

; Function Attrs: mustprogress nounwind uwtable
define linkonce_odr noundef i32 @_ZNK7QCPAxis7paddingEv(ptr noundef nonnull align 8 dereferenceable(472) %0) #0 comdat align 2 {
  %2 = alloca ptr, align 8
  store ptr %0, ptr %2, align 8
  %3 = load ptr, ptr %2, align 8
  %4 = getelementptr inbounds %class.QCPAxis, ptr %3, i32 0, i32 3
  %5 = load i32, ptr %4, align 8
  ret i32 %5
}

; Function Attrs: mustprogress nounwind uwtable
define linkonce_odr noundef i32 @_ZNK11QCPAxisRect5rightEv(ptr noundef nonnull align 8 dereferenceable(432) %0) #0 comdat align 2 {
  %2 = alloca ptr, align 8
  store ptr %0, ptr %2, align 8
  %3 = load ptr, ptr %2, align 8
  %4 = getelementptr inbounds %class.QCPLayoutElement, ptr %3, i32 0, i32 5
  %5 = call noundef i32 @_ZNK5QRect5rightEv(ptr noundef nonnull align 4 dereferenceable(16) %4) #15
  ret i32 %5
}

; Function Attrs: mustprogress nounwind uwtable
define linkonce_odr noundef ptr @_ZNK7QCPAxis8axisRectEv(ptr noundef nonnull align 8 dereferenceable(472) %0) #0 comdat align 2 {
  %2 = alloca ptr, align 8
  store ptr %0, ptr %2, align 8
  %3 = load ptr, ptr %2, align 8
  %4 = getelementptr inbounds %class.QCPAxis, ptr %3, i32 0, i32 2
  %5 = load ptr, ptr %4, align 8
  ret ptr %5
}

; Function Attrs: mustprogress nounwind uwtable
define linkonce_odr noundef i32 @_ZNK6QPoint1xEv(ptr noundef nonnull align 4 dereferenceable(8) %0) #0 comdat align 2 {
  %2 = alloca ptr, align 8
  store ptr %0, ptr %2, align 8
  %3 = load ptr, ptr %2, align 8
  %4 = getelementptr inbounds %class.QPoint, ptr %3, i32 0, i32 0
  %5 = load i32, ptr %4, align 4
  ret i32 %5
}

; Function Attrs: mustprogress uwtable
define noundef zeroext i1 @_ZNK15SequenceDiagram9inCommentE6QPoint(ptr noundef nonnull align 8 dereferenceable(240) %0, i64 %1) #1 align 2 {
  %3 = alloca %class.QPoint, align 4
  %4 = alloca ptr, align 8
  store i64 %1, ptr %3, align 4
  store ptr %0, ptr %4, align 8
  %5 = load ptr, ptr %4, align 8
  %6 = call noundef i32 @_ZNK6QPoint1xEv(ptr noundef nonnull align 4 dereferenceable(8) %3) #15
  %7 = getelementptr inbounds %class.SequenceDiagram, ptr %5, i32 0, i32 3
  %8 = load ptr, ptr %7, align 8
  %9 = call noundef ptr @_ZNK7QCPAxis8axisRectEv(ptr noundef nonnull align 8 dereferenceable(472) %8)
  %10 = call noundef i32 @_ZNK11QCPAxisRect5rightEv(ptr noundef nonnull align 8 dereferenceable(432) %9)
  %11 = getelementptr inbounds %class.SequenceDiagram, ptr %5, i32 0, i32 3
  %12 = load ptr, ptr %11, align 8
  %13 = call noundef i32 @_ZNK7QCPAxis7paddingEv(ptr noundef nonnull align 8 dereferenceable(472) %12)
  %14 = add i32 %10, %13
  %15 = getelementptr inbounds %class.SequenceDiagram, ptr %5, i32 0, i32 3
  %16 = load ptr, ptr %15, align 8
  %17 = call noundef i32 @_ZNK7QCPAxis16tickLabelPaddingEv(ptr noundef nonnull align 8 dereferenceable(472) %16)
  %18 = add i32 %14, %17
  %19 = getelementptr inbounds %class.SequenceDiagram, ptr %5, i32 0, i32 3
  %20 = load ptr, ptr %19, align 8
  %21 = call noundef i32 @_ZNK7QCPAxis6offsetEv(ptr noundef nonnull align 8 dereferenceable(472) %20)
  %22 = add i32 %18, %21
  %23 = icmp sge i32 %6, %22
  ret i1 %23
}