; Function Attrs: mustprogress uwtable
define noundef zeroext i1 @_ZNK15SequenceDiagram9inCommentE6QPoint(ptr nocapture noundef nonnull readonly align 8 dereferenceable(240) %0, i64 %1) local_unnamed_addr #1 align 2 {
  %.sroa.0.0.extract.trunc = trunc i64 %1 to i32
  %3 = getelementptr inbounds i8, ptr %0, i64 200
  %4 = load ptr, ptr %3, align 8
  %5 = getelementptr inbounds i8, ptr %4, i64 64
  %6 = load ptr, ptr %5, align 8
  %7 = getelementptr inbounds i8, ptr %6, i64 100
  %8 = load i32, ptr %7, align 4
  %9 = getelementptr inbounds i8, ptr %4, i64 72
  %10 = load i32, ptr %9, align 8
  %11 = add i32 %10, %8
  %12 = tail call noundef i32 @_ZNK7QCPAxis16tickLabelPaddingEv(ptr noundef nonnull align 8 dereferenceable(472) %4)
  %13 = add i32 %11, %12
  %14 = load ptr, ptr %3, align 8
  %15 = tail call noundef i32 @_ZNK7QCPAxis6offsetEv(ptr noundef nonnull align 8 dereferenceable(472) %14)
  %16 = add i32 %13, %15
  %17 = icmp sle i32 %16, %.sroa.0.0.extract.trunc
  ret i1 %17
}